target datalayout = "e-m:e-p270:32:32-p271:32:32-p272:64:64-i64:64-i128:128-f80:128-n8:16:32:64-S128"
target triple = "x86_64-pc-linux-gnu"

%struct.xcgroup_t = type { ptr, ptr, ptr, i32, i32, i32 }

@g_cg_name = dso_local global [5 x ptr] [ptr @.str, ptr @.str.1, ptr @.str.2, ptr @.str.3, ptr @.str.4], align 16
@int_cg = internal global [5 x [9 x %struct.xcgroup_t]] zeroinitializer, align 16
@.str.9 = private unnamed_addr constant [34 x i8] c"cgroup subsystem %u not supported\00", align 1
@.str.16 = private unnamed_addr constant [39 x i8] c"This operation is not supported for %s\00", align 1

; Function Attrs: nounwind uwtable
define dso_local i32 @cgroup_p_system_addto(i32 noundef %0, ptr noundef %1, i32 noundef %2) #0 {
  %4 = alloca i32, align 4
  %5 = alloca i32, align 4
  %6 = alloca ptr, align 8
  %7 = alloca i32, align 4
  store i32 %0, ptr %5, align 4
  store ptr %1, ptr %6, align 8
  store i32 %2, ptr %7, align 4
  %8 = load i32, ptr %5, align 4
  switch i32 %8, label %25 [
    i32 0, label %28
    i32 1, label %9
    i32 2, label %17
    i32 3, label %28
    i32 4, label %28
  ]

9:                                                ; preds = %3
  %10 = load i32, ptr %5, align 4
  %11 = zext i32 %10 to i64
  %12 = getelementptr inbounds nuw [5 x [9 x %struct.xcgroup_t]], ptr @int_cg, i64 0, i64 %11
  %13 = getelementptr inbounds [9 x %struct.xcgroup_t], ptr %12, i64 0, i64 8
  %14 = load ptr, ptr %6, align 8
  %15 = load i32, ptr %7, align 4
  %16 = call i32 @common_cgroup_add_pids(ptr noundef %13, ptr noundef %14, i32 noundef %15)
  store i32 %16, ptr %4, align 4
  br label %34

17:                                               ; preds = %3
  %18 = load i32, ptr %5, align 4
  %19 = zext i32 %18 to i64
  %20 = getelementptr inbounds nuw [5 x [9 x %struct.xcgroup_t]], ptr @int_cg, i64 0, i64 %19
  %21 = getelementptr inbounds [9 x %struct.xcgroup_t], ptr %20, i64 0, i64 8
  %22 = load ptr, ptr %6, align 8
  %23 = load i32, ptr %7, align 4
  %24 = call i32 @common_cgroup_add_pids(ptr noundef %21, ptr noundef %22, i32 noundef %23)
  store i32 %24, ptr %4, align 4
  br label %34

25:                                               ; preds = %3
  %26 = load i32, ptr %5, align 4
  %27 = call i32 (ptr, ...) @error(ptr noundef @.str.9, i32 noundef %26)
  store i32 -1, ptr %4, align 4
  br label %34

28:                                               ; preds = %3, %3, %3
  %29 = load i32, ptr %5, align 4
  %30 = zext i32 %29 to i64
  %31 = getelementptr inbounds nuw [5 x ptr], ptr @g_cg_name, i64 0, i64 %30
  %32 = load ptr, ptr %31, align 8
  %33 = call i32 (ptr, ...) @error(ptr noundef @.str.16, ptr noundef %32)
  store i32 -1, ptr %4, align 4
  br label %34

34:                                               ; preds = %28, %25, %17, %9
  %35 = load i32, ptr %4, align 4
  ret i32 %35
}