; Function Attrs: nounwind uwtable
define dso_local i32 @cgroup_p_system_addto(i32 noundef %0, ptr noundef %1, i32 noundef %2) local_unnamed_addr #0 {
  switch i32 %0, label %8 [
    i32 0, label %10
    i32 1, label %4
    i32 2, label %6
    i32 3, label %10
    i32 4, label %10
  ]

4:                                                ; preds = %3
  %5 = tail call i32 @common_cgroup_add_pids(ptr noundef nonnull getelementptr inbounds nuw (i8, ptr @int_cg, i64 680), ptr noundef %1, i32 noundef %2) #11
  br label %15

6:                                                ; preds = %3
  %7 = tail call i32 @common_cgroup_add_pids(ptr noundef nonnull getelementptr inbounds nuw (i8, ptr @int_cg, i64 1040), ptr noundef %1, i32 noundef %2) #11
  br label %15

8:                                                ; preds = %3
  %9 = tail call i32 (ptr, ...) @error(ptr noundef nonnull @.str.9, i32 noundef %0) #11
  br label %15

10:                                               ; preds = %3, %3, %3
  %11 = zext nneg i32 %0 to i64
  %12 = getelementptr inbounds nuw [5 x ptr], ptr @g_cg_name, i64 0, i64 %11
  %13 = load ptr, ptr %12, align 8
  %14 = tail call i32 (ptr, ...) @error(ptr noundef nonnull @.str.16, ptr noundef %13) #11
  br label %15

15:                                               ; preds = %10, %8, %6, %4
  %.0 = phi i32 [ -1, %8 ], [ %7, %6 ], [ %5, %4 ], [ -1, %10 ]
  ret i32 %.0
}